; Function Attrs: mustprogress uwtable
define noundef zeroext i1 @_ZN32pxrInternal_v0_24__pxrReserved__8JsWriter8WriteKeyEPKc(ptr noundef nonnull readonly align 8 captures(none) dereferenceable(8) %0, ptr noundef %1) local_unnamed_addr #3 align 2 {
  %3 = load ptr, ptr %0, align 8
  %.val = load ptr, ptr %3, align 8
  %4 = tail call i64 @strlen(ptr noundef nonnull dereferenceable(1) %1) #28
  %5 = load ptr, ptr %.val, align 8
  %6 = getelementptr inbounds nuw i8, ptr %5, i64 88
  %7 = load ptr, ptr %6, align 8
  %8 = tail call noundef zeroext i1 %7(ptr noundef nonnull align 8 dereferenceable(8) %.val, ptr noundef nonnull %1, i64 noundef %4)
  ret i1 %8
}